target datalayout = "e-m:e-p270:32:32-p271:32:32-p272:64:64-i64:64-i128:128-f80:128-n8:16:32:64-S128"
target triple = "x86_64-pc-linux-gnu"

%"class.icu_77::UCharCharacterIterator" = type { %"class.icu_77::CharacterIterator", ptr }
%"class.icu_77::CharacterIterator" = type { %"class.icu_77::ForwardCharacterIterator", i32, i32, i32, i32 }
%"class.icu_77::ForwardCharacterIterator" = type { %"class.icu_77::UObject" }
%"class.icu_77::UObject" = type { ptr }
%"class.icu_77::ConstChar16Ptr" = type { ptr }

; Function Attrs: inlinehint mustprogress nounwind uwtable
define linkonce_odr noundef ptr @_ZNK6icu_7714ConstChar16Ptr3getEv(ptr noundef nonnull align 8 dereferenceable(8) %0) #6 comdat align 2 {
  %2 = alloca ptr, align 8
  store ptr %0, ptr %2, align 8, !tbaa !17
  %3 = load ptr, ptr %2, align 8
  %4 = getelementptr inbounds nuw %"class.icu_77::ConstChar16Ptr", ptr %3, i32 0, i32 0
  %5 = load ptr, ptr %4, align 8, !tbaa !41
  ret ptr %5
}

; Function Attrs: inlinehint mustprogress uwtable
define linkonce_odr noundef ptr @_ZNK6icu_7714ConstChar16PtrcvPKDsEv(ptr noundef nonnull align 8 dereferenceable(8) %0) #3 comdat align 2 {
  %2 = alloca ptr, align 8
  store ptr %0, ptr %2, align 8, !tbaa !17
  %3 = load ptr, ptr %2, align 8
  %4 = call noundef ptr @_ZNK6icu_7714ConstChar16Ptr3getEv(ptr noundef nonnull align 8 dereferenceable(8) %3)
  ret ptr %4
}

; Function Attrs: mustprogress uwtable
define void @_ZN6icu_7722UCharCharacterIteratorC2ENS_14ConstChar16PtrEiiii(ptr noundef nonnull align 8 dereferenceable(32) %0, ptr noundef %1, i32 noundef %2, i32 noundef %3, i32 noundef %4, i32 noundef %5) unnamed_addr #1 align 2 personality ptr @__gxx_personality_v0 {
  %7 = alloca ptr, align 8
  %8 = alloca ptr, align 8
  %9 = alloca i32, align 4
  %10 = alloca i32, align 4
  %11 = alloca i32, align 4
  %12 = alloca i32, align 4
  %13 = alloca ptr, align 8
  %14 = alloca i32, align 4
  store ptr %0, ptr %7, align 8, !tbaa !3
  store ptr %1, ptr %8, align 8, !tbaa !17
  store i32 %2, ptr %9, align 4, !tbaa !19
  store i32 %3, ptr %10, align 4, !tbaa !19
  store i32 %4, ptr %11, align 4, !tbaa !19
  store i32 %5, ptr %12, align 4, !tbaa !19
  %15 = load ptr, ptr %7, align 8
  %16 = call noundef ptr @_ZNK6icu_7714ConstChar16PtrcvPKDsEv(ptr noundef nonnull align 8 dereferenceable(8) %1)
  %17 = icmp ne ptr %16, null
  br i1 %17, label %18, label %28

18:                                               ; preds = %6
  %19 = load i32, ptr %9, align 4, !tbaa !19
  %20 = icmp sge i32 %19, 0
  br i1 %20, label %21, label %23

21:                                               ; preds = %18
  %22 = load i32, ptr %9, align 4, !tbaa !19
  br label %26

23:                                               ; preds = %18
  %24 = call noundef ptr @_ZNK6icu_7714ConstChar16PtrcvPKDsEv(ptr noundef nonnull align 8 dereferenceable(8) %1)
  %25 = call i32 @u_strlen_77(ptr noundef %24)
  br label %26

26:                                               ; preds = %23, %21
  %27 = phi i32 [ %22, %21 ], [ %25, %23 ]
  br label %29

28:                                               ; preds = %6
  br label %29

29:                                               ; preds = %28, %26
  %30 = phi i32 [ %27, %26 ], [ 0, %28 ]
  %31 = load i32, ptr %10, align 4, !tbaa !19
  %32 = load i32, ptr %11, align 4, !tbaa !19
  %33 = load i32, ptr %12, align 4, !tbaa !19
  call void @_ZN6icu_7717CharacterIteratorC2Eiiii(ptr noundef nonnull align 8 dereferenceable(24) %15, i32 noundef %30, i32 noundef %31, i32 noundef %32, i32 noundef %33)
  store ptr getelementptr inbounds inrange(-16, 216) ({ [29 x ptr] }, ptr @_ZTVN6icu_7722UCharCharacterIteratorE, i32 0, i32 0, i32 2), ptr %15, align 8, !tbaa !8
  %34 = getelementptr inbounds nuw %"class.icu_77::UCharCharacterIterator", ptr %15, i32 0, i32 1
  %35 = invoke noundef ptr @_ZNK6icu_7714ConstChar16PtrcvPKDsEv(ptr noundef nonnull align 8 dereferenceable(8) %1)
          to label %36 unwind label %37

36:                                               ; preds = %29
  store ptr %35, ptr %34, align 8, !tbaa !10
  ret void

37:                                               ; preds = %29
  %38 = landingpad { ptr, i32 }
          cleanup
  %39 = extractvalue { ptr, i32 } %38, 0
  store ptr %39, ptr %13, align 8
  %40 = extractvalue { ptr, i32 } %38, 1
  store i32 %40, ptr %14, align 4
  call void @_ZN6icu_7717CharacterIteratorD2Ev(ptr noundef nonnull align 8 dereferenceable(24) %15) #7
  br label %41

41:                                               ; preds = %37
  %42 = load ptr, ptr %13, align 8
  %43 = load i32, ptr %14, align 4
  %44 = insertvalue { ptr, i32 } poison, ptr %42, 0
  %45 = insertvalue { ptr, i32 } %44, i32 %43, 1
  resume { ptr, i32 } %45
}