; Function Attrs: mustprogress uwtable
define void @_ZN6icu_7722UCharCharacterIteratorC2ENS_14ConstChar16PtrEiiii(ptr noundef nonnull align 8 dereferenceable(32) %0, ptr noundef readonly captures(none) %1, i32 noundef %2, i32 noundef %3, i32 noundef %4, i32 noundef %5) unnamed_addr #1 align 2 personality ptr @__gxx_personality_v0 {
  %7 = load ptr, ptr %1, align 8, !tbaa !15
  %.not = icmp eq ptr %7, null
  br i1 %.not, label %12, label %8

8:                                                ; preds = %6
  %9 = icmp sgt i32 %2, -1
  br i1 %9, label %12, label %10

10:                                               ; preds = %8
  %11 = tail call i32 @u_strlen_77(ptr noundef nonnull %7)
  br label %12

12:                                               ; preds = %10, %6, %8
  %13 = phi i32 [ %11, %10 ], [ 0, %6 ], [ %2, %8 ]
  tail call void @_ZN6icu_7717CharacterIteratorC2Eiiii(ptr noundef nonnull align 8 dereferenceable(24) %0, i32 noundef %13, i32 noundef %3, i32 noundef %4, i32 noundef %5)
  store ptr getelementptr inbounds nuw inrange(-16, 216) (i8, ptr @_ZTVN6icu_7722UCharCharacterIteratorE, i64 16), ptr %0, align 8, !tbaa !3
  %14 = load ptr, ptr %1, align 8, !tbaa !15
  %15 = getelementptr inbounds nuw i8, ptr %0, i64 24
  store ptr %14, ptr %15, align 8, !tbaa !6
  ret void
}